target datalayout = "e-m:e-p270:32:32-p271:32:32-p272:64:64-i64:64-i128:128-f80:128-n8:16:32:64-S128"
target triple = "x86_64-pc-linux-gnu"

; Function Attrs: nounwind uwtable
define hidden void @KeccakP1600_OverwriteWithZeroes(ptr noundef %0, i32 noundef %1) #0 {
  %3 = alloca ptr, align 8
  %4 = alloca i32, align 4
  %5 = alloca i32, align 4
  store ptr %0, ptr %3, align 8, !tbaa !4
  store i32 %1, ptr %4, align 4, !tbaa !10
  call void @llvm.lifetime.start.p0(i64 4, ptr %5) #4
  store i32 0, ptr %5, align 4, !tbaa !10
  br label %6

6:                                                ; preds = %40, %2
  %7 = load i32, ptr %5, align 4, !tbaa !10
  %8 = load i32, ptr %4, align 4, !tbaa !10
  %9 = udiv i32 %8, 8
  %10 = icmp ult i32 %7, %9
  br i1 %10, label %11, label %43

11:                                               ; preds = %6
  %12 = load i32, ptr %5, align 4, !tbaa !10
  %13 = icmp eq i32 %12, 1
  br i1 %13, label %29, label %14

14:                                               ; preds = %11
  %15 = load i32, ptr %5, align 4, !tbaa !10
  %16 = icmp eq i32 %15, 2
  br i1 %16, label %29, label %17

17:                                               ; preds = %14
  %18 = load i32, ptr %5, align 4, !tbaa !10
  %19 = icmp eq i32 %18, 8
  br i1 %19, label %29, label %20

20:                                               ; preds = %17
  %21 = load i32, ptr %5, align 4, !tbaa !10
  %22 = icmp eq i32 %21, 12
  br i1 %22, label %29, label %23

23:                                               ; preds = %20
  %24 = load i32, ptr %5, align 4, !tbaa !10
  %25 = icmp eq i32 %24, 17
  br i1 %25, label %29, label %26

26:                                               ; preds = %23
  %27 = load i32, ptr %5, align 4, !tbaa !10
  %28 = icmp eq i32 %27, 20
  br i1 %28, label %29, label %34

29:                                               ; preds = %26, %23, %20, %17, %14, %11
  %30 = load ptr, ptr %3, align 8, !tbaa !4
  %31 = load i32, ptr %5, align 4, !tbaa !10
  %32 = zext i32 %31 to i64
  %33 = getelementptr inbounds nuw i64, ptr %30, i64 %32
  store i64 -1, ptr %33, align 8, !tbaa !8
  br label %39

34:                                               ; preds = %26
  %35 = load ptr, ptr %3, align 8, !tbaa !4
  %36 = load i32, ptr %5, align 4, !tbaa !10
  %37 = zext i32 %36 to i64
  %38 = getelementptr inbounds nuw i64, ptr %35, i64 %37
  store i64 0, ptr %38, align 8, !tbaa !8
  br label %39

39:                                               ; preds = %34, %29
  br label %40

40:                                               ; preds = %39
  %41 = load i32, ptr %5, align 4, !tbaa !10
  %42 = add i32 %41, 1
  store i32 %42, ptr %5, align 4, !tbaa !10
  br label %6

43:                                               ; preds = %6
  %44 = load i32, ptr %4, align 4, !tbaa !10
  %45 = urem i32 %44, 8
  %46 = icmp ne i32 %45, 0
  br i1 %46, label %47, label %86

47:                                               ; preds = %43
  %48 = load i32, ptr %4, align 4, !tbaa !10
  %49 = udiv i32 %48, 8
  store i32 %49, ptr %5, align 4, !tbaa !10
  %50 = load i32, ptr %5, align 4, !tbaa !10
  %51 = icmp eq i32 %50, 1
  br i1 %51, label %67, label %52

52:                                               ; preds = %47
  %53 = load i32, ptr %5, align 4, !tbaa !10
  %54 = icmp eq i32 %53, 2
  br i1 %54, label %67, label %55

55:                                               ; preds = %52
  %56 = load i32, ptr %5, align 4, !tbaa !10
  %57 = icmp eq i32 %56, 8
  br i1 %57, label %67, label %58

58:                                               ; preds = %55
  %59 = load i32, ptr %5, align 4, !tbaa !10
  %60 = icmp eq i32 %59, 12
  br i1 %60, label %67, label %61

61:                                               ; preds = %58
  %62 = load i32, ptr %5, align 4, !tbaa !10
  %63 = icmp eq i32 %62, 17
  br i1 %63, label %67, label %64

64:                                               ; preds = %61
  %65 = load i32, ptr %5, align 4, !tbaa !10
  %66 = icmp eq i32 %65, 20
  br i1 %66, label %67, label %76

67:                                               ; preds = %64, %61, %58, %55, %52, %47
  %68 = load ptr, ptr %3, align 8, !tbaa !4
  %69 = load i32, ptr %5, align 4, !tbaa !10
  %70 = mul i32 %69, 8
  %71 = zext i32 %70 to i64
  %72 = getelementptr inbounds nuw i8, ptr %68, i64 %71
  %73 = load i32, ptr %4, align 4, !tbaa !10
  %74 = urem i32 %73, 8
  %75 = zext i32 %74 to i64
  call void @llvm.memset.p0.i64(ptr align 1 %72, i8 -1, i64 %75, i1 false)
  br label %85

76:                                               ; preds = %64
  %77 = load ptr, ptr %3, align 8, !tbaa !4
  %78 = load i32, ptr %5, align 4, !tbaa !10
  %79 = mul i32 %78, 8
  %80 = zext i32 %79 to i64
  %81 = getelementptr inbounds nuw i8, ptr %77, i64 %80
  %82 = load i32, ptr %4, align 4, !tbaa !10
  %83 = urem i32 %82, 8
  %84 = zext i32 %83 to i64
  call void @llvm.memset.p0.i64(ptr align 1 %81, i8 0, i64 %84, i1 false)
  br label %85

85:                                               ; preds = %76, %67
  br label %86

86:                                               ; preds = %85, %43
  call void @llvm.lifetime.end.p0(i64 4, ptr %5) #4
  ret void
}