; Function Attrs: nofree norecurse nosync nounwind memory(argmem: write) uwtable
define hidden void @KeccakP1600_OverwriteWithZeroes(ptr noundef writeonly captures(none) %0, i32 noundef %1) local_unnamed_addr #6 {
  %3 = lshr i32 %1, 3
  %.not49 = icmp ult i32 %1, 8
  br i1 %.not49, label %._crit_edge, label %.lr.ph.preheader

.lr.ph.preheader:                                 ; preds = %2
  %wide.trip.count = zext nneg i32 %3 to i64
  br label %.lr.ph

.lr.ph:                                           ; preds = %.lr.ph.preheader, %8
  %indvars.iv = phi i64 [ 0, %.lr.ph.preheader ], [ %indvars.iv.next, %8 ]
  %4 = trunc nuw nsw i64 %indvars.iv to i32
  %5 = and i32 %4, 2147483643
  %6 = icmp eq i32 %5, 8
  br i1 %6, label %8, label %switch.early.test

switch.early.test:                                ; preds = %.lr.ph
  switch i32 %4, label %7 [
    i32 20, label %8
    i32 17, label %8
    i32 2, label %8
    i32 1, label %8
  ]

7:                                                ; preds = %switch.early.test
  br label %8

8:                                                ; preds = %.lr.ph, %switch.early.test, %switch.early.test, %switch.early.test, %switch.early.test, %7
  %.sink = phi i64 [ 0, %7 ], [ -1, %switch.early.test ], [ -1, %switch.early.test ], [ -1, %switch.early.test ], [ -1, %switch.early.test ], [ -1, %.lr.ph ]
  %9 = getelementptr inbounds nuw i64, ptr %0, i64 %indvars.iv
  store i64 %.sink, ptr %9, align 8, !tbaa !4
  %indvars.iv.next = add nuw nsw i64 %indvars.iv, 1
  %exitcond.not = icmp eq i64 %indvars.iv.next, %wide.trip.count
  br i1 %exitcond.not, label %._crit_edge, label %.lr.ph

._crit_edge:                                      ; preds = %8, %2
  %10 = and i32 %1, 7
  %.not = icmp eq i32 %10, 0
  br i1 %.not, label %24, label %11

11:                                               ; preds = %._crit_edge
  %12 = and i32 %1, -40
  %13 = icmp eq i32 %12, 64
  br i1 %13, label %14, label %switch.early.test47

switch.early.test47:                              ; preds = %11
  switch i32 %3, label %19 [
    i32 20, label %14
    i32 17, label %14
    i32 2, label %14
    i32 1, label %14
  ]

14:                                               ; preds = %switch.early.test47, %switch.early.test47, %switch.early.test47, %switch.early.test47, %11
  %15 = and i32 %1, -8
  %16 = zext i32 %15 to i64
  %17 = getelementptr inbounds nuw i8, ptr %0, i64 %16
  %18 = zext nneg i32 %10 to i64
  tail call void @llvm.memset.p0.i64(ptr align 1 %17, i8 -1, i64 %18, i1 false)
  br label %24

19:                                               ; preds = %switch.early.test47
  %20 = and i32 %1, -8
  %21 = zext i32 %20 to i64
  %22 = getelementptr inbounds nuw i8, ptr %0, i64 %21
  %23 = zext nneg i32 %10 to i64
  tail call void @llvm.memset.p0.i64(ptr align 1 %22, i8 0, i64 %23, i1 false)
  br label %24

24:                                               ; preds = %14, %19, %._crit_edge
  ret void
}